; Function Attrs: mustprogress uwtable
define noundef nonnull align 8 dereferenceable(24) ptr @_ZN3nix5Value7mkAttrsERNS_15BindingsBuilderE(ptr noundef nonnull returned writeonly align 8 dereferenceable(24) %0, ptr nocapture noundef nonnull readonly align 8 dereferenceable(16) %1) local_unnamed_addr #4 align 2 {
  %3 = load ptr, ptr %1, align 8
  %4 = getelementptr inbounds i8, ptr %3, i64 4
  %5 = load i32, ptr %4, align 4
  %.not.i.i = icmp eq i32 %5, 0
  br i1 %.not.i.i, label %_ZN3nix15BindingsBuilder6finishEv.exit, label %6

6:                                                ; preds = %2
  %7 = zext i32 %5 to i64
  %.ptr.i.i = getelementptr inbounds i8, ptr %3, i64 16
  %.idx.i.i = shl nuw nsw i64 %7, 4
  %8 = getelementptr i8, ptr %3, i64 %.idx.i.i
  %.ptr1.i.i = getelementptr i8, ptr %8, i64 16
  %9 = ptrtoint ptr %.ptr1.i.i to i64
  %10 = ptrtoint ptr %.ptr.i.i to i64
  %11 = sub i64 %9, %10
  %12 = ashr exact i64 %11, 4
  %13 = tail call i64 @llvm.ctlz.i64(i64 %12, i1 true), !range !4
  %14 = shl nuw nsw i64 %13, 1
  %15 = xor i64 %14, 126
  tail call void @_ZSt16__introsort_loopIPN3nix4AttrElN9__gnu_cxx5__ops15_Iter_less_iterEEvT_S6_T0_T1_(ptr noundef nonnull %.ptr.i.i, ptr noundef nonnull %.ptr1.i.i, i64 noundef %15)
  tail call void @_ZSt22__final_insertion_sortIPN3nix4AttrEN9__gnu_cxx5__ops15_Iter_less_iterEEvT_S6_T0_(ptr noundef nonnull %.ptr.i.i, ptr noundef nonnull %.ptr1.i.i)
  %.pre.i = load ptr, ptr %1, align 8
  br label %_ZN3nix15BindingsBuilder6finishEv.exit

_ZN3nix15BindingsBuilder6finishEv.exit:           ; preds = %2, %6
  %16 = phi ptr [ %3, %2 ], [ %.pre.i, %6 ]
  %17 = getelementptr inbounds i8, ptr %0, i64 8
  %18 = getelementptr inbounds i8, ptr %0, i64 16
  store i64 0, ptr %18, align 8
  store i32 6, ptr %0, align 8
  store ptr %16, ptr %17, align 8
  ret ptr %0
}